target datalayout = "e-m:e-p270:32:32-p271:32:32-p272:64:64-i64:64-i128:128-f80:128-n8:16:32:64-S128"
target triple = "x86_64-pc-linux-gnu"

%struct.optstruct = type { ptr, ptr, ptr, i64, i32, i32, i32, i32, ptr, ptr, ptr }

@.str.107 = private unnamed_addr constant [37 x i8] c"string_list_add: Invalid arguments.\0A\00", align 1
@.str.108 = private unnamed_addr constant [78 x i8] c"string_list_add: Failed to allocate memory for optional database list entry.\0A\00", align 1
@.str.109 = private unnamed_addr constant [77 x i8] c"string_list_add: Failed to allocate memory for optional database list item.\0A\00", align 1
@.str.181 = private unnamed_addr constant [37 x i8] c"get_string_list: Invalid arguments.\0A\00", align 1
@.str.182 = private unnamed_addr constant [48 x i8] c"get_string_list: Failed to add string to list.\0A\00", align 1

; Function Attrs: nounwind uwtable
define internal void @free_string_list(ptr noundef %0, i32 noundef %1) #0 {
  %3 = alloca ptr, align 8
  %4 = alloca i32, align 4
  %5 = alloca i32, align 4
  store ptr %0, ptr %3, align 8
  store i32 %1, ptr %4, align 4
  %6 = load ptr, ptr %3, align 8
  %7 = icmp ne ptr null, %6
  br i1 %7, label %8, label %36

8:                                                ; preds = %2
  store i32 0, ptr %5, align 4
  br label %9

9:                                                ; preds = %31, %8
  %10 = load i32, ptr %5, align 4
  %11 = load i32, ptr %4, align 4
  %12 = icmp ult i32 %10, %11
  br i1 %12, label %13, label %34

13:                                               ; preds = %9
  %14 = load ptr, ptr %3, align 8
  %15 = load i32, ptr %5, align 4
  %16 = zext i32 %15 to i64
  %17 = getelementptr inbounds ptr, ptr %14, i64 %16
  %18 = load ptr, ptr %17, align 8
  %19 = icmp ne ptr %18, null
  br i1 %19, label %20, label %30

20:                                               ; preds = %13
  %21 = load ptr, ptr %3, align 8
  %22 = load i32, ptr %5, align 4
  %23 = zext i32 %22 to i64
  %24 = getelementptr inbounds ptr, ptr %21, i64 %23
  %25 = load ptr, ptr %24, align 8
  call void @free(ptr noundef %25) #10
  %26 = load ptr, ptr %3, align 8
  %27 = load i32, ptr %5, align 4
  %28 = zext i32 %27 to i64
  %29 = getelementptr inbounds ptr, ptr %26, i64 %28
  store ptr null, ptr %29, align 8
  br label %30

30:                                               ; preds = %20, %13
  br label %31

31:                                               ; preds = %30
  %32 = load i32, ptr %5, align 4
  %33 = add i32 %32, 1
  store i32 %33, ptr %5, align 4
  br label %9

34:                                               ; preds = %9
  %35 = load ptr, ptr %3, align 8
  call void @free(ptr noundef %35) #10
  br label %36

36:                                               ; preds = %34, %2
  ret void
}

; Function Attrs: nounwind uwtable
define internal i32 @string_list_add(ptr noundef %0, ptr noundef %1, ptr noundef %2) #0 {
  %4 = alloca ptr, align 8
  %5 = alloca ptr, align 8
  %6 = alloca ptr, align 8
  %7 = alloca i32, align 4
  %8 = alloca ptr, align 8
  %9 = alloca i32, align 4
  store ptr %0, ptr %4, align 8
  store ptr %1, ptr %5, align 8
  store ptr %2, ptr %6, align 8
  store i32 16, ptr %7, align 4
  store ptr null, ptr %8, align 8
  store i32 0, ptr %9, align 4
  %10 = load ptr, ptr %4, align 8
  %11 = icmp eq ptr null, %10
  br i1 %11, label %18, label %12

12:                                               ; preds = %3
  %13 = load ptr, ptr %5, align 8
  %14 = icmp eq ptr null, %13
  br i1 %14, label %18, label %15

15:                                               ; preds = %12
  %16 = load ptr, ptr %6, align 8
  %17 = icmp eq ptr null, %16
  br i1 %17, label %18, label %19

18:                                               ; preds = %15, %12, %3
  call void (i32, ptr, ...) @mprintf(i32 noundef 5, ptr noundef @.str.107)
  br label %53

19:                                               ; preds = %15
  %20 = load ptr, ptr %6, align 8
  %21 = load i32, ptr %20, align 4
  %22 = add i32 %21, 1
  store i32 %22, ptr %9, align 4
  %23 = load ptr, ptr %5, align 8
  %24 = load ptr, ptr %23, align 8
  %25 = load i32, ptr %9, align 4
  %26 = zext i32 %25 to i64
  %27 = mul i64 %26, 8
  %28 = call ptr @cli_safer_realloc(ptr noundef %24, i64 noundef %27)
  store ptr %28, ptr %8, align 8
  %29 = load ptr, ptr %8, align 8
  %30 = icmp eq ptr %29, null
  br i1 %30, label %31, label %32

31:                                               ; preds = %19
  call void (i32, ptr, ...) @mprintf(i32 noundef 5, ptr noundef @.str.108)
  store i32 15, ptr %7, align 4
  br label %53

32:                                               ; preds = %19
  %33 = load ptr, ptr %8, align 8
  %34 = load ptr, ptr %5, align 8
  store ptr %33, ptr %34, align 8
  %35 = load ptr, ptr %4, align 8
  %36 = call ptr @cli_safer_strdup(ptr noundef %35)
  %37 = load ptr, ptr %8, align 8
  %38 = load i32, ptr %9, align 4
  %39 = sub i32 %38, 1
  %40 = zext i32 %39 to i64
  %41 = getelementptr inbounds ptr, ptr %37, i64 %40
  store ptr %36, ptr %41, align 8
  %42 = load ptr, ptr %8, align 8
  %43 = load i32, ptr %9, align 4
  %44 = sub i32 %43, 1
  %45 = zext i32 %44 to i64
  %46 = getelementptr inbounds ptr, ptr %42, i64 %45
  %47 = load ptr, ptr %46, align 8
  %48 = icmp eq ptr %47, null
  br i1 %48, label %49, label %50

49:                                               ; preds = %32
  call void (i32, ptr, ...) @mprintf(i32 noundef 5, ptr noundef @.str.109)
  store i32 15, ptr %7, align 4
  br label %53

50:                                               ; preds = %32
  %51 = load i32, ptr %9, align 4
  %52 = load ptr, ptr %6, align 8
  store i32 %51, ptr %52, align 4
  store i32 0, ptr %7, align 4
  br label %53

53:                                               ; preds = %50, %49, %31, %18
  %54 = load i32, ptr %7, align 4
  ret i32 %54
}

; Function Attrs: nounwind uwtable
define internal i32 @get_string_list(ptr noundef %0, ptr noundef %1, ptr noundef %2) #0 {
  %4 = alloca ptr, align 8
  %5 = alloca ptr, align 8
  %6 = alloca ptr, align 8
  %7 = alloca i32, align 4
  %8 = alloca i32, align 4
  %9 = alloca ptr, align 8
  %10 = alloca i32, align 4
  store ptr %0, ptr %4, align 8
  store ptr %1, ptr %5, align 8
  store ptr %2, ptr %6, align 8
  store i32 16, ptr %8, align 4
  store ptr null, ptr %9, align 8
  store i32 0, ptr %10, align 4
  %11 = load ptr, ptr %4, align 8
  %12 = icmp eq ptr null, %11
  br i1 %12, label %19, label %13

13:                                               ; preds = %3
  %14 = load ptr, ptr %5, align 8
  %15 = icmp eq ptr null, %14
  br i1 %15, label %19, label %16

16:                                               ; preds = %13
  %17 = load ptr, ptr %6, align 8
  %18 = icmp eq ptr null, %17
  br i1 %18, label %19, label %20

19:                                               ; preds = %16, %13, %3
  call void (i32, ptr, ...) @mprintf(i32 noundef 5, ptr noundef @.str.181)
  br label %47

20:                                               ; preds = %16
  %21 = load ptr, ptr %5, align 8
  store ptr null, ptr %21, align 8
  %22 = load ptr, ptr %6, align 8
  store i32 0, ptr %22, align 4
  %23 = load ptr, ptr %4, align 8
  %24 = getelementptr inbounds %struct.optstruct, ptr %23, i32 0, i32 4
  %25 = load i32, ptr %24, align 8
  %26 = icmp ne i32 %25, 0
  br i1 %26, label %27, label %46

27:                                               ; preds = %20
  br label %28

28:                                               ; preds = %41, %27
  %29 = load ptr, ptr %4, align 8
  %30 = icmp ne ptr %29, null
  br i1 %30, label %31, label %45

31:                                               ; preds = %28
  %32 = load ptr, ptr %4, align 8
  %33 = getelementptr inbounds %struct.optstruct, ptr %32, i32 0, i32 2
  %34 = load ptr, ptr %33, align 8
  %35 = load ptr, ptr %5, align 8
  %36 = load ptr, ptr %6, align 8
  %37 = call i32 @string_list_add(ptr noundef %34, ptr noundef %35, ptr noundef %36)
  store i32 %37, ptr %7, align 4
  %38 = icmp ne i32 0, %37
  br i1 %38, label %39, label %41

39:                                               ; preds = %31
  call void (i32, ptr, ...) @mprintf(i32 noundef 5, ptr noundef @.str.182)
  %40 = load i32, ptr %7, align 4
  store i32 %40, ptr %8, align 4
  br label %47

41:                                               ; preds = %31
  %42 = load ptr, ptr %4, align 8
  %43 = getelementptr inbounds %struct.optstruct, ptr %42, i32 0, i32 8
  %44 = load ptr, ptr %43, align 8
  store ptr %44, ptr %4, align 8
  br label %28

45:                                               ; preds = %28
  br label %46

46:                                               ; preds = %45, %20
  store i32 0, ptr %8, align 4
  br label %47

47:                                               ; preds = %46, %39, %19
  %48 = load i32, ptr %8, align 4
  %49 = icmp ne i32 0, %48
  br i1 %49, label %50, label %53

50:                                               ; preds = %47
  %51 = load ptr, ptr %9, align 8
  %52 = load i32, ptr %10, align 4
  call void @free_string_list(ptr noundef %51, i32 noundef %52)
  br label %53

53:                                               ; preds = %50, %47
  %54 = load i32, ptr %8, align 4
  ret i32 %54
}