; Function Attrs: nounwind uwtable
define internal fastcc noundef i32 @get_string_list(ptr noundef readonly %0, ptr noundef %1, ptr noundef writeonly %2) unnamed_addr #0 {
  %4 = icmp eq ptr %0, null
  %5 = icmp eq ptr %1, null
  %or.cond = or i1 %4, %5
  %6 = icmp eq ptr %2, null
  %or.cond3 = or i1 %or.cond, %6
  br i1 %or.cond3, label %.thread.sink.split, label %7

7:                                                ; preds = %3
  store ptr null, ptr %1, align 8
  store i32 0, ptr %2, align 4
  %8 = getelementptr inbounds i8, ptr %0, i64 32
  %9 = load i32, ptr %8, align 8
  %.not = icmp eq i32 %9, 0
  br i1 %.not, label %.thread, label %.preheader

.preheader:                                       ; preds = %7, %27
  %10 = phi i32 [ %15, %27 ], [ 0, %7 ]
  %.0 = phi ptr [ %29, %27 ], [ %0, %7 ]
  %11 = getelementptr inbounds i8, ptr %.0, i64 16
  %12 = load ptr, ptr %11, align 8
  %13 = icmp eq ptr %12, null
  br i1 %13, label %26, label %14

14:                                               ; preds = %.preheader
  %15 = add i32 %10, 1
  %16 = load ptr, ptr %1, align 8
  %17 = zext i32 %15 to i64
  %18 = shl nuw nsw i64 %17, 3
  %19 = tail call ptr @cli_safer_realloc(ptr noundef %16, i64 noundef %18) #17
  %20 = icmp eq ptr %19, null
  br i1 %20, label %26, label %21

21:                                               ; preds = %14
  store ptr %19, ptr %1, align 8
  %22 = tail call ptr @cli_safer_strdup(ptr noundef nonnull %12) #17
  %23 = zext i32 %10 to i64
  %24 = getelementptr inbounds ptr, ptr %19, i64 %23
  store ptr %22, ptr %24, align 8
  %25 = icmp eq ptr %22, null
  br i1 %25, label %26, label %27

26:                                               ; preds = %21, %14, %.preheader
  %.str.107.sink = phi ptr [ @.str.107, %.preheader ], [ @.str.108, %14 ], [ @.str.109, %21 ]
  %.0.i.ph = phi i32 [ 16, %.preheader ], [ 15, %14 ], [ 15, %21 ]
  tail call void (i32, ptr, ...) @mprintf(i32 noundef 5, ptr noundef nonnull %.str.107.sink) #17
  br label %.thread.sink.split

27:                                               ; preds = %21
  store i32 %15, ptr %2, align 4
  %28 = getelementptr inbounds i8, ptr %.0, i64 48
  %29 = load ptr, ptr %28, align 8
  %.old4.not = icmp eq ptr %29, null
  br i1 %.old4.not, label %.thread, label %.preheader

.thread.sink.split:                               ; preds = %3, %26
  %.str.182.sink = phi ptr [ @.str.182, %26 ], [ @.str.181, %3 ]
  %.02033.ph = phi i32 [ %.0.i.ph, %26 ], [ 16, %3 ]
  tail call void (i32, ptr, ...) @mprintf(i32 noundef 5, ptr noundef nonnull %.str.182.sink) #17
  br label %.thread

.thread:                                          ; preds = %27, %.thread.sink.split, %7
  %.02033 = phi i32 [ 0, %7 ], [ %.02033.ph, %.thread.sink.split ], [ 0, %27 ]
  ret i32 %.02033
}